(dp1
S'old man gift'
p2
S''
sS'brother item'
p3
S'ELIXIR'
p4
sS'old man item'
p5
(dp6
g4
(dp7
S'value'
p8
I1000
sS'quantity'
p9
I1
sssS'battle type'
p10
S''
sS'treasure2'
p11
I01
sS'treasure3'
p12
I01
sS'treasure4'
p13
I01
sS'treasure5'
p14
I01
sS'start of game'
p15
I01
sS'delivered crown'
p16
I00
sS'crown quest'
p17
I00
sS'has brother elixir'
p18
I00
sS'last location'
p19
NsS'last state'
p20
NsS'king item'
p21
S'GOLD'
p22
sS'last direction'
p23
S'down'
p24
sS'elixir received'
p25
I00
sS'brother quest complete'
p26
I00
sS'player stats'
p27
(dp28
S'magic'
p29
(dp30
S'current'
p31
I70
sS'maximum'
p32
I70
ssS'Defense Points'
p33
I10
sS'Level'
p34
I1
sS'health'
p35
(dp36
g31
I70
sg32
I70
ssS'experience to next level'
p37
I30
sS'attack points'
p38
I10
ssS'battle counter'
p39
I50
sS'talked to sick brother'
p40
I00
sS'treasure1'
p41
I01
sS'player inventory'
p42
(dp43
S'Rapier'
p44
(dp45
S'power'
p46
I9
sS'value'
p47
I50
sS'quantity'
p48
I1
ssS'equipped weapon'
p49
g44
sg22
(dp50
S'value'
p51
I0
sS'quantity'
p52
I100
ssS'Ether Potion'
p53
(dp54
S'value'
p55
I15
sS'quantity'
p56
I1
ssS'equipped armor'
p57
(lp58
sS'Healing Potion'
p59
(dp60
S'value'
p61
I15
sS'quantity'
p62
I2
sssS'talked to king'
p63
I00
s.